target datalayout = "e-m:e-p270:32:32-p271:32:32-p272:64:64-i64:64-i128:128-f80:128-n8:16:32:64-S128"
target triple = "x86_64-pc-linux-gnu"

%"struct.OpenSubdiv::v3_6_0::Far::TopologyRefiner::AdaptiveOptions" = type { i16, [2 x i8] }
%"struct.OpenSubdiv::v3_6_0::Far::PatchBuilder::Options" = type <{ i32, i32, i8, i8, i8, i8 }>
%"class.OpenSubdiv::v3_6_0::Bfr::PatchTreeBuilder" = type { ptr, ptr, i32, %"class.std::vector", %"class.std::vector.0", ptr }
%"class.std::vector" = type { %"struct.std::_Vector_base" }
%"struct.std::_Vector_base" = type { %"struct.std::_Vector_base<int, std::allocator<int>>::_Vector_impl" }
%"struct.std::_Vector_base<int, std::allocator<int>>::_Vector_impl" = type { %"struct.std::_Vector_base<int, std::allocator<int>>::_Vector_impl_data" }
%"struct.std::_Vector_base<int, std::allocator<int>>::_Vector_impl_data" = type { ptr, ptr, ptr }
%"class.std::vector.0" = type { %"struct.std::_Vector_base.1" }
%"struct.std::_Vector_base.1" = type { %"struct.std::_Vector_base<OpenSubdiv::v3_6_0::Bfr::PatchTreeBuilder::PatchFace, std::allocator<OpenSubdiv::v3_6_0::Bfr::PatchTreeBuilder::PatchFace>>::_Vector_impl" }
%"struct.std::_Vector_base<OpenSubdiv::v3_6_0::Bfr::PatchTreeBuilder::PatchFace, std::allocator<OpenSubdiv::v3_6_0::Bfr::PatchTreeBuilder::PatchFace>>::_Vector_impl" = type { %"struct.std::_Vector_base<OpenSubdiv::v3_6_0::Bfr::PatchTreeBuilder::PatchFace, std::allocator<OpenSubdiv::v3_6_0::Bfr::PatchTreeBuilder::PatchFace>>::_Vector_impl_data" }
%"struct.std::_Vector_base<OpenSubdiv::v3_6_0::Bfr::PatchTreeBuilder::PatchFace, std::allocator<OpenSubdiv::v3_6_0::Bfr::PatchTreeBuilder::PatchFace>>::_Vector_impl_data" = type { ptr, ptr, ptr }
%"class.std::vector.15" = type { %"struct.std::_Vector_base.16" }
%"struct.std::_Vector_base.16" = type { %"struct.std::_Vector_base<float, std::allocator<float>>::_Vector_impl" }
%"struct.std::_Vector_base<float, std::allocator<float>>::_Vector_impl" = type { %"struct.std::_Vector_base<float, std::allocator<float>>::_Vector_impl_data" }
%"struct.std::_Vector_base<float, std::allocator<float>>::_Vector_impl_data" = type { ptr, ptr, ptr }
%"class.OpenSubdiv::v3_6_0::Far::TopologyRefiner" = type { i32, %"class.OpenSubdiv::v3_6_0::Sdc::Options", i16, [2 x i8], %"struct.OpenSubdiv::v3_6_0::Far::TopologyRefiner::UniformOptions", %"struct.OpenSubdiv::v3_6_0::Far::TopologyRefiner::AdaptiveOptions", i32, i32, i32, i32, i32, i8, %"class.std::vector.25", %"class.std::vector.30", %"class.std::vector.35" }
%"class.OpenSubdiv::v3_6_0::Sdc::Options" = type { i8, i8, i8, i8 }
%"struct.OpenSubdiv::v3_6_0::Far::TopologyRefiner::UniformOptions" = type { i8, [3 x i8] }
%"class.std::vector.25" = type { %"struct.std::_Vector_base.26" }
%"struct.std::_Vector_base.26" = type { %"struct.std::_Vector_base<OpenSubdiv::v3_6_0::Vtr::internal::Level *, std::allocator<OpenSubdiv::v3_6_0::Vtr::internal::Level *>>::_Vector_impl" }
%"struct.std::_Vector_base<OpenSubdiv::v3_6_0::Vtr::internal::Level *, std::allocator<OpenSubdiv::v3_6_0::Vtr::internal::Level *>>::_Vector_impl" = type { %"struct.std::_Vector_base<OpenSubdiv::v3_6_0::Vtr::internal::Level *, std::allocator<OpenSubdiv::v3_6_0::Vtr::internal::Level *>>::_Vector_impl_data" }
%"struct.std::_Vector_base<OpenSubdiv::v3_6_0::Vtr::internal::Level *, std::allocator<OpenSubdiv::v3_6_0::Vtr::internal::Level *>>::_Vector_impl_data" = type { ptr, ptr, ptr }
%"class.std::vector.30" = type { %"struct.std::_Vector_base.31" }
%"struct.std::_Vector_base.31" = type { %"struct.std::_Vector_base<OpenSubdiv::v3_6_0::Vtr::internal::Refinement *, std::allocator<OpenSubdiv::v3_6_0::Vtr::internal::Refinement *>>::_Vector_impl" }
%"struct.std::_Vector_base<OpenSubdiv::v3_6_0::Vtr::internal::Refinement *, std::allocator<OpenSubdiv::v3_6_0::Vtr::internal::Refinement *>>::_Vector_impl" = type { %"struct.std::_Vector_base<OpenSubdiv::v3_6_0::Vtr::internal::Refinement *, std::allocator<OpenSubdiv::v3_6_0::Vtr::internal::Refinement *>>::_Vector_impl_data" }
%"struct.std::_Vector_base<OpenSubdiv::v3_6_0::Vtr::internal::Refinement *, std::allocator<OpenSubdiv::v3_6_0::Vtr::internal::Refinement *>>::_Vector_impl_data" = type { ptr, ptr, ptr }
%"class.std::vector.35" = type { %"struct.std::_Vector_base.36" }
%"struct.std::_Vector_base.36" = type { %"struct.std::_Vector_base<OpenSubdiv::v3_6_0::Far::TopologyLevel, std::allocator<OpenSubdiv::v3_6_0::Far::TopologyLevel>>::_Vector_impl" }
%"struct.std::_Vector_base<OpenSubdiv::v3_6_0::Far::TopologyLevel, std::allocator<OpenSubdiv::v3_6_0::Far::TopologyLevel>>::_Vector_impl" = type { %"struct.std::_Vector_base<OpenSubdiv::v3_6_0::Far::TopologyLevel, std::allocator<OpenSubdiv::v3_6_0::Far::TopologyLevel>>::_Vector_impl_data" }
%"struct.std::_Vector_base<OpenSubdiv::v3_6_0::Far::TopologyLevel, std::allocator<OpenSubdiv::v3_6_0::Far::TopologyLevel>>::_Vector_impl_data" = type { ptr, ptr, ptr }
%"class.OpenSubdiv::v3_6_0::Vtr::internal::Level" = type { i32, i32, i32, i32, i32, i32, %"class.std::vector", %"class.std::vector", %"class.std::vector", %"class.std::vector.40", %"class.std::vector", %"class.std::vector", %"class.std::vector", %"class.std::vector.45", %"class.std::vector.15", %"class.std::vector.50", %"class.std::vector", %"class.std::vector", %"class.std::vector.45", %"class.std::vector", %"class.std::vector", %"class.std::vector.45", %"class.std::vector.15", %"class.std::vector.55", %"class.std::vector.60" }
%"class.std::vector.40" = type { %"struct.std::_Vector_base.41" }
%"struct.std::_Vector_base.41" = type { %"struct.std::_Vector_base<OpenSubdiv::v3_6_0::Vtr::internal::Level::FTag, std::allocator<OpenSubdiv::v3_6_0::Vtr::internal::Level::FTag>>::_Vector_impl" }
%"struct.std::_Vector_base<OpenSubdiv::v3_6_0::Vtr::internal::Level::FTag, std::allocator<OpenSubdiv::v3_6_0::Vtr::internal::Level::FTag>>::_Vector_impl" = type { %"struct.std::_Vector_base<OpenSubdiv::v3_6_0::Vtr::internal::Level::FTag, std::allocator<OpenSubdiv::v3_6_0::Vtr::internal::Level::FTag>>::_Vector_impl_data" }
%"struct.std::_Vector_base<OpenSubdiv::v3_6_0::Vtr::internal::Level::FTag, std::allocator<OpenSubdiv::v3_6_0::Vtr::internal::Level::FTag>>::_Vector_impl_data" = type { ptr, ptr, ptr }
%"class.std::vector.50" = type { %"struct.std::_Vector_base.51" }
%"struct.std::_Vector_base.51" = type { %"struct.std::_Vector_base<OpenSubdiv::v3_6_0::Vtr::internal::Level::ETag, std::allocator<OpenSubdiv::v3_6_0::Vtr::internal::Level::ETag>>::_Vector_impl" }
%"struct.std::_Vector_base<OpenSubdiv::v3_6_0::Vtr::internal::Level::ETag, std::allocator<OpenSubdiv::v3_6_0::Vtr::internal::Level::ETag>>::_Vector_impl" = type { %"struct.std::_Vector_base<OpenSubdiv::v3_6_0::Vtr::internal::Level::ETag, std::allocator<OpenSubdiv::v3_6_0::Vtr::internal::Level::ETag>>::_Vector_impl_data" }
%"struct.std::_Vector_base<OpenSubdiv::v3_6_0::Vtr::internal::Level::ETag, std::allocator<OpenSubdiv::v3_6_0::Vtr::internal::Level::ETag>>::_Vector_impl_data" = type { ptr, ptr, ptr }
%"class.std::vector.45" = type { %"struct.std::_Vector_base.46" }
%"struct.std::_Vector_base.46" = type { %"struct.std::_Vector_base<unsigned short, std::allocator<unsigned short>>::_Vector_impl" }
%"struct.std::_Vector_base<unsigned short, std::allocator<unsigned short>>::_Vector_impl" = type { %"struct.std::_Vector_base<unsigned short, std::allocator<unsigned short>>::_Vector_impl_data" }
%"struct.std::_Vector_base<unsigned short, std::allocator<unsigned short>>::_Vector_impl_data" = type { ptr, ptr, ptr }
%"class.std::vector.55" = type { %"struct.std::_Vector_base.56" }
%"struct.std::_Vector_base.56" = type { %"struct.std::_Vector_base<OpenSubdiv::v3_6_0::Vtr::internal::Level::VTag, std::allocator<OpenSubdiv::v3_6_0::Vtr::internal::Level::VTag>>::_Vector_impl" }
%"struct.std::_Vector_base<OpenSubdiv::v3_6_0::Vtr::internal::Level::VTag, std::allocator<OpenSubdiv::v3_6_0::Vtr::internal::Level::VTag>>::_Vector_impl" = type { %"struct.std::_Vector_base<OpenSubdiv::v3_6_0::Vtr::internal::Level::VTag, std::allocator<OpenSubdiv::v3_6_0::Vtr::internal::Level::VTag>>::_Vector_impl_data" }
%"struct.std::_Vector_base<OpenSubdiv::v3_6_0::Vtr::internal::Level::VTag, std::allocator<OpenSubdiv::v3_6_0::Vtr::internal::Level::VTag>>::_Vector_impl_data" = type { ptr, ptr, ptr }
%"class.std::vector.60" = type { %"struct.std::_Vector_base.61" }
%"struct.std::_Vector_base.61" = type { %"struct.std::_Vector_base<OpenSubdiv::v3_6_0::Vtr::internal::FVarLevel *, std::allocator<OpenSubdiv::v3_6_0::Vtr::internal::FVarLevel *>>::_Vector_impl" }
%"struct.std::_Vector_base<OpenSubdiv::v3_6_0::Vtr::internal::FVarLevel *, std::allocator<OpenSubdiv::v3_6_0::Vtr::internal::FVarLevel *>>::_Vector_impl" = type { %"struct.std::_Vector_base<OpenSubdiv::v3_6_0::Vtr::internal::FVarLevel *, std::allocator<OpenSubdiv::v3_6_0::Vtr::internal::FVarLevel *>>::_Vector_impl_data" }
%"struct.std::_Vector_base<OpenSubdiv::v3_6_0::Vtr::internal::FVarLevel *, std::allocator<OpenSubdiv::v3_6_0::Vtr::internal::FVarLevel *>>::_Vector_impl_data" = type { ptr, ptr, ptr }
%"class.OpenSubdiv::v3_6_0::Far::PatchBuilder" = type { ptr, ptr, %"struct.OpenSubdiv::v3_6_0::Far::PatchBuilder::Options", i32, i32, i8, i32, i32, i32, i32 }

; Function Attrs: mustprogress nounwind uwtable
define linkonce_odr noundef nonnull align 8 dereferenceable(8) ptr @_ZNSt6vectorIPN10OpenSubdiv6v3_6_03Vtr8internal5LevelESaIS5_EEixEm(ptr noundef nonnull align 8 dereferenceable(24) %0, i64 noundef %1) #4 comdat align 2 {
  %3 = alloca ptr, align 8
  %4 = alloca i64, align 8
  store ptr %0, ptr %3, align 8
  store i64 %1, ptr %4, align 8
  %5 = load ptr, ptr %3, align 8
  %6 = getelementptr inbounds nuw %"struct.std::_Vector_base.26", ptr %5, i32 0, i32 0
  %7 = getelementptr inbounds nuw %"struct.std::_Vector_base<OpenSubdiv::v3_6_0::Vtr::internal::Level *, std::allocator<OpenSubdiv::v3_6_0::Vtr::internal::Level *>>::_Vector_impl_data", ptr %6, i32 0, i32 0
  %8 = load ptr, ptr %7, align 8
  %9 = load i64, ptr %4, align 8
  %10 = getelementptr inbounds ptr, ptr %8, i64 %9
  ret ptr %10
}

; Function Attrs: mustprogress nounwind uwtable
define linkonce_odr noundef i32 @_ZNK10OpenSubdiv6v3_6_03Vtr8internal5Level11getNumFacesEv(ptr noundef nonnull align 8 dereferenceable(480) %0) #4 comdat align 2 {
  %2 = alloca ptr, align 8
  store ptr %0, ptr %2, align 8
  %3 = load ptr, ptr %2, align 8
  %4 = getelementptr inbounds nuw %"class.OpenSubdiv::v3_6_0::Vtr::internal::Level", ptr %3, i32 0, i32 0
  %5 = load i32, ptr %4, align 8
  ret i32 %5
}

; Function Attrs: mustprogress nounwind uwtable
define linkonce_odr noundef i32 @_ZNK10OpenSubdiv6v3_6_03Vtr8internal5Level11getNumEdgesEv(ptr noundef nonnull align 8 dereferenceable(480) %0) #4 comdat align 2 {
  %2 = alloca ptr, align 8
  store ptr %0, ptr %2, align 8
  %3 = load ptr, ptr %2, align 8
  %4 = getelementptr inbounds nuw %"class.OpenSubdiv::v3_6_0::Vtr::internal::Level", ptr %3, i32 0, i32 1
  %5 = load i32, ptr %4, align 4
  ret i32 %5
}

; Function Attrs: mustprogress nounwind uwtable
define linkonce_odr noundef nonnull align 8 dereferenceable(480) ptr @_ZN10OpenSubdiv6v3_6_03Far15TopologyRefiner8getLevelEi(ptr noundef nonnull align 8 dereferenceable(120) %0, i32 noundef %1) #4 comdat align 2 {
  %3 = alloca ptr, align 8
  %4 = alloca i32, align 4
  store ptr %0, ptr %3, align 8
  store i32 %1, ptr %4, align 4
  %5 = load ptr, ptr %3, align 8
  %6 = getelementptr inbounds nuw %"class.OpenSubdiv::v3_6_0::Far::TopologyRefiner", ptr %5, i32 0, i32 12
  %7 = load i32, ptr %4, align 4
  %8 = sext i32 %7 to i64
  %9 = call noundef nonnull align 8 dereferenceable(8) ptr @_ZNSt6vectorIPN10OpenSubdiv6v3_6_03Vtr8internal5LevelESaIS5_EEixEm(ptr noundef nonnull align 8 dereferenceable(24) %6, i64 noundef %8) #12
  %10 = load ptr, ptr %9, align 8
  ret ptr %10
}

; Function Attrs: mustprogress nounwind uwtable
define linkonce_odr noundef i32 @_ZNK10OpenSubdiv6v3_6_03Far12PatchBuilder18GetRegularFaceSizeEv(ptr noundef nonnull align 8 dereferenceable(56) %0) #4 comdat align 2 {
  %2 = alloca ptr, align 8
  store ptr %0, ptr %2, align 8
  %3 = load ptr, ptr %2, align 8
  %4 = getelementptr inbounds nuw %"class.OpenSubdiv::v3_6_0::Far::PatchBuilder", ptr %3, i32 0, i32 4
  %5 = load i32, ptr %4, align 8
  ret i32 %5
}

; Function Attrs: mustprogress nounwind uwtable
define noundef zeroext i1 @_ZNK10OpenSubdiv6v3_6_03Bfr16PatchTreeBuilder17testFaceAncestorsEv(ptr noundef nonnull align 8 dereferenceable(80) %0) #4 align 2 {
  %2 = alloca ptr, align 8
  store ptr %0, ptr %2, align 8
  %3 = load ptr, ptr %2, align 8
  %4 = getelementptr inbounds nuw %"class.OpenSubdiv::v3_6_0::Bfr::PatchTreeBuilder", ptr %3, i32 0, i32 5
  %5 = load ptr, ptr %4, align 8
  %6 = call noundef i32 @_ZNK10OpenSubdiv6v3_6_03Far12PatchBuilder18GetRegularFaceSizeEv(ptr noundef nonnull align 8 dereferenceable(56) %5)
  %7 = icmp eq i32 %6, 3
  br i1 %7, label %8, label %20

8:                                                ; preds = %1
  %9 = getelementptr inbounds nuw %"class.OpenSubdiv::v3_6_0::Bfr::PatchTreeBuilder", ptr %3, i32 0, i32 1
  %10 = load ptr, ptr %9, align 8
  %11 = call noundef nonnull align 8 dereferenceable(480) ptr @_ZN10OpenSubdiv6v3_6_03Far15TopologyRefiner8getLevelEi(ptr noundef nonnull align 8 dereferenceable(120) %10, i32 noundef 0)
  %12 = call noundef i32 @_ZNK10OpenSubdiv6v3_6_03Vtr8internal5Level11getNumEdgesEv(ptr noundef nonnull align 8 dereferenceable(480) %11)
  %13 = icmp eq i32 %12, 3
  br i1 %13, label %14, label %20

14:                                               ; preds = %8
  %15 = getelementptr inbounds nuw %"class.OpenSubdiv::v3_6_0::Bfr::PatchTreeBuilder", ptr %3, i32 0, i32 1
  %16 = load ptr, ptr %15, align 8
  %17 = call noundef nonnull align 8 dereferenceable(480) ptr @_ZN10OpenSubdiv6v3_6_03Far15TopologyRefiner8getLevelEi(ptr noundef nonnull align 8 dereferenceable(120) %16, i32 noundef 0)
  %18 = call noundef i32 @_ZNK10OpenSubdiv6v3_6_03Vtr8internal5Level11getNumFacesEv(ptr noundef nonnull align 8 dereferenceable(480) %17)
  %19 = icmp sgt i32 %18, 1
  br label %20

20:                                               ; preds = %14, %8, %1
  %21 = phi i1 [ false, %8 ], [ false, %1 ], [ %19, %14 ]
  ret i1 %21
}