; Function Attrs: mustprogress nofree norecurse nosync nounwind willreturn memory(read, inaccessiblemem: none) uwtable
define noundef zeroext i1 @_ZNK10OpenSubdiv6v3_6_03Bfr16PatchTreeBuilder17testFaceAncestorsEv(ptr nocapture noundef nonnull readonly align 8 dereferenceable(80) %0) local_unnamed_addr #10 align 2 {
  %2 = getelementptr inbounds nuw i8, ptr %0, i64 72
  %3 = load ptr, ptr %2, align 8
  %4 = getelementptr inbounds nuw i8, ptr %3, i64 32
  %5 = load i32, ptr %4, align 8
  %6 = icmp eq i32 %5, 3
  br i1 %6, label %7, label %19

7:                                                ; preds = %1
  %8 = getelementptr inbounds nuw i8, ptr %0, i64 8
  %9 = load ptr, ptr %8, align 8
  %10 = getelementptr inbounds nuw i8, ptr %9, i64 48
  %11 = load ptr, ptr %10, align 8
  %12 = load ptr, ptr %11, align 8
  %13 = getelementptr inbounds nuw i8, ptr %12, i64 4
  %14 = load i32, ptr %13, align 4
  %15 = icmp eq i32 %14, 3
  br i1 %15, label %16, label %19

16:                                               ; preds = %7
  %17 = load i32, ptr %12, align 8
  %18 = icmp sgt i32 %17, 1
  br label %19

19:                                               ; preds = %16, %7, %1
  %20 = phi i1 [ false, %7 ], [ false, %1 ], [ %18, %16 ]
  ret i1 %20
}